; Function Attrs: nounwind uwtable
define internal fastcc noalias nonnull ptr @_init_l_Lean_initFn____x40_Lean_Compiler_ExternAttr___hyg_1192____closed__11() unnamed_addr #0 {
  %1 = load ptr, ptr @l_Lean_initFn____x40_Lean_Compiler_ExternAttr___hyg_1192____closed__7, align 8, !tbaa !4
  %2 = load ptr, ptr @l_Lean_initFn____x40_Lean_Compiler_ExternAttr___hyg_1192____closed__8, align 8, !tbaa !4
  %3 = load ptr, ptr @l_Lean_initFn____x40_Lean_Compiler_ExternAttr___hyg_1192____closed__9, align 8, !tbaa !4
  %4 = load ptr, ptr @l_Lean_initFn____x40_Lean_Compiler_ExternAttr___hyg_1192____closed__10, align 8, !tbaa !4
  tail call void @lean_inc_heartbeat() #6
  %5 = tail call noalias ptr @mi_malloc_small(i64 noundef 40) #6
  %6 = icmp eq ptr %5, null
  br i1 %6, label %7, label %lean_alloc_ctor.exit

7:                                                ; preds = %0
  tail call void @lean_internal_panic_out_of_memory() #7
  unreachable

lean_alloc_ctor.exit:                             ; preds = %0
  %8 = getelementptr inbounds nuw i8, ptr %5, i64 4
  store i32 1, ptr %5, align 4, !tbaa !10
  store i32 262184, ptr %8, align 4
  %9 = getelementptr inbounds nuw i8, ptr %5, i64 8
  store ptr %1, ptr %9, align 8, !tbaa !4
  %10 = getelementptr inbounds nuw i8, ptr %5, i64 16
  store ptr %2, ptr %10, align 8, !tbaa !4
  %11 = getelementptr inbounds nuw i8, ptr %5, i64 24
  store ptr %3, ptr %11, align 8, !tbaa !4
  %12 = getelementptr inbounds nuw i8, ptr %5, i64 32
  store ptr %4, ptr %12, align 8, !tbaa !4
  ret ptr %5
}